target datalayout = "e-m:e-p270:32:32-p271:32:32-p272:64:64-i64:64-i128:128-f80:128-n8:16:32:64-S128"
target triple = "x86_64-pc-linux-gnu"

%class.CellTypeState = type { i32 }
%class.methodHandle = type { ptr, ptr }
%class.RetTable = type { ptr }
%class.GenerateOopMap = type { ptr, %class.methodHandle, %class.RetTable, i32, i32, i32, i32, i8, %class.Handle, i8, i8, i8, i32, ptr, ptr, i32, i32, ptr, i32, i32, %class.ResourceBitMap, i8, i8, ptr, ptr, i8, i32, ptr, ptr }
%class.Handle = type { ptr }
%class.ResourceBitMap = type { %class.GrowableBitMap }
%class.GrowableBitMap = type { %class.BitMap }
%class.BitMap = type { ptr, i64 }

; Function Attrs: mustprogress nounwind uwtable
define linkonce_odr hidden i32 @_ZN13CellTypeState8make_anyEi(i32 noundef %0) #1 comdat align 2 {
  %2 = alloca %class.CellTypeState, align 4
  %3 = alloca i32, align 4
  store i32 %0, ptr %3, align 4
  %4 = load i32, ptr %3, align 4
  %5 = getelementptr inbounds %class.CellTypeState, ptr %2, i32 0, i32 0
  store i32 %4, ptr %5, align 4
  %6 = getelementptr inbounds %class.CellTypeState, ptr %2, i32 0, i32 0
  %7 = load i32, ptr %6, align 4
  ret i32 %7
}

; Function Attrs: mustprogress nounwind uwtable
define linkonce_odr hidden i32 @_ZN13CellTypeState13make_slot_refEi(i32 noundef %0) #1 comdat align 2 {
  %2 = alloca %class.CellTypeState, align 4
  %3 = alloca i32, align 4
  store i32 %0, ptr %3, align 4
  %4 = load i32, ptr %3, align 4
  %5 = and i32 %4, 16777215
  %6 = or i32 1191182336, %5
  %7 = call i32 @_ZN13CellTypeState8make_anyEi(i32 noundef %6)
  %8 = getelementptr inbounds %class.CellTypeState, ptr %2, i32 0, i32 0
  store i32 %7, ptr %8, align 4
  %9 = getelementptr inbounds %class.CellTypeState, ptr %2, i32 0, i32 0
  %10 = load i32, ptr %9, align 4
  ret i32 %10
}

; Function Attrs: mustprogress nounwind uwtable
define linkonce_odr hidden noundef zeroext i1 @_ZNK13CellTypeState12is_referenceEv(ptr noundef nonnull align 4 dereferenceable(4) %0) #1 comdat align 2 {
  %2 = alloca ptr, align 8
  store ptr %0, ptr %2, align 8
  %3 = load ptr, ptr %2, align 8
  %4 = getelementptr inbounds %class.CellTypeState, ptr %3, i32 0, i32 0
  %5 = load i32, ptr %4, align 4
  %6 = and i32 %5, -268435456
  %7 = icmp eq i32 %6, 1073741824
  ret i1 %7
}

; Function Attrs: mustprogress nounwind uwtable
define linkonce_odr hidden noundef zeroext i1 @_ZNK13CellTypeState11is_info_topEv(ptr noundef nonnull align 4 dereferenceable(4) %0) #1 comdat align 2 {
  %2 = alloca ptr, align 8
  store ptr %0, ptr %2, align 8
  %3 = load ptr, ptr %2, align 8
  %4 = getelementptr inbounds %class.CellTypeState, ptr %3, i32 0, i32 0
  %5 = load i32, ptr %4, align 4
  %6 = and i32 %5, 134217728
  %7 = icmp ne i32 %6, 0
  ret i1 %7
}

; Function Attrs: mustprogress nounwind uwtable
define linkonce_odr hidden noundef zeroext i1 @_ZNK13CellTypeState5equalES_(ptr noundef nonnull align 4 dereferenceable(4) %0, i32 %1) #1 comdat align 2 {
  %3 = alloca %class.CellTypeState, align 4
  %4 = alloca ptr, align 8
  %5 = getelementptr inbounds %class.CellTypeState, ptr %3, i32 0, i32 0
  store i32 %1, ptr %5, align 4
  store ptr %0, ptr %4, align 8
  %6 = load ptr, ptr %4, align 8
  %7 = getelementptr inbounds %class.CellTypeState, ptr %6, i32 0, i32 0
  %8 = load i32, ptr %7, align 4
  %9 = getelementptr inbounds %class.CellTypeState, ptr %3, i32 0, i32 0
  %10 = load i32, ptr %9, align 4
  %11 = icmp eq i32 %8, %10
  ret i1 %11
}

; Function Attrs: mustprogress nounwind uwtable
define hidden i32 @_ZNK13CellTypeState5mergeES_i(ptr noundef nonnull align 4 dereferenceable(4) %0, i32 %1, i32 noundef %2) #1 align 2 {
  %4 = alloca %class.CellTypeState, align 4
  %5 = alloca %class.CellTypeState, align 4
  %6 = alloca ptr, align 8
  %7 = alloca i32, align 4
  %8 = alloca %class.CellTypeState, align 4
  %9 = alloca %class.CellTypeState, align 4
  %10 = getelementptr inbounds %class.CellTypeState, ptr %5, i32 0, i32 0
  store i32 %1, ptr %10, align 4
  store ptr %0, ptr %6, align 8
  store i32 %2, ptr %7, align 4
  %11 = load ptr, ptr %6, align 8
  %12 = getelementptr inbounds %class.CellTypeState, ptr %11, i32 0, i32 0
  %13 = load i32, ptr %12, align 4
  %14 = getelementptr inbounds %class.CellTypeState, ptr %5, i32 0, i32 0
  %15 = load i32, ptr %14, align 4
  %16 = or i32 %13, %15
  %17 = getelementptr inbounds %class.CellTypeState, ptr %4, i32 0, i32 0
  store i32 %16, ptr %17, align 4
  %18 = call noundef zeroext i1 @_ZNK13CellTypeState11is_info_topEv(ptr noundef nonnull align 4 dereferenceable(4) %4)
  br i1 %18, label %35, label %19

19:                                               ; preds = %3
  call void @llvm.memcpy.p0.p0.i64(ptr align 4 %8, ptr align 4 %5, i64 4, i1 false)
  %20 = getelementptr inbounds %class.CellTypeState, ptr %8, i32 0, i32 0
  %21 = load i32, ptr %20, align 4
  %22 = call noundef zeroext i1 @_ZNK13CellTypeState5equalES_(ptr noundef nonnull align 4 dereferenceable(4) %11, i32 %21)
  br i1 %22, label %34, label %23

23:                                               ; preds = %19
  %24 = call noundef zeroext i1 @_ZNK13CellTypeState12is_referenceEv(ptr noundef nonnull align 4 dereferenceable(4) %4)
  br i1 %24, label %25, label %29

25:                                               ; preds = %23
  %26 = load i32, ptr %7, align 4
  %27 = call i32 @_ZN13CellTypeState13make_slot_refEi(i32 noundef %26)
  %28 = getelementptr inbounds %class.CellTypeState, ptr %9, i32 0, i32 0
  store i32 %27, ptr %28, align 4
  call void @llvm.memcpy.p0.p0.i64(ptr align 4 %4, ptr align 4 %9, i64 4, i1 false)
  br label %33

29:                                               ; preds = %23
  %30 = getelementptr inbounds %class.CellTypeState, ptr %4, i32 0, i32 0
  %31 = load i32, ptr %30, align 4
  %32 = or i32 %31, 268435455
  store i32 %32, ptr %30, align 4
  br label %33

33:                                               ; preds = %29, %25
  br label %34

34:                                               ; preds = %33, %19
  br label %35

35:                                               ; preds = %34, %3
  %36 = getelementptr inbounds %class.CellTypeState, ptr %4, i32 0, i32 0
  %37 = load i32, ptr %36, align 4
  ret i32 %37
}

; Function Attrs: mustprogress nounwind uwtable
define hidden noundef zeroext i1 @_ZN14GenerateOopMap25merge_local_state_vectorsEP13CellTypeStateS1_(ptr noundef nonnull align 8 dereferenceable(176) %0, ptr noundef %1, ptr noundef %2) #1 align 2 {
  %4 = alloca ptr, align 8
  %5 = alloca ptr, align 8
  %6 = alloca ptr, align 8
  %7 = alloca i32, align 4
  %8 = alloca i32, align 4
  %9 = alloca i8, align 1
  %10 = alloca %class.CellTypeState, align 4
  %11 = alloca %class.CellTypeState, align 4
  %12 = alloca %class.CellTypeState, align 4
  store ptr %0, ptr %4, align 8
  store ptr %1, ptr %5, align 8
  store ptr %2, ptr %6, align 8
  %13 = load ptr, ptr %4, align 8
  %14 = getelementptr inbounds %class.GenerateOopMap, ptr %13, i32 0, i32 3
  %15 = load i32, ptr %14, align 8
  %16 = getelementptr inbounds %class.GenerateOopMap, ptr %13, i32 0, i32 15
  %17 = load i32, ptr %16, align 8
  %18 = add nsw i32 %15, %17
  store i32 %18, ptr %8, align 4
  store i8 0, ptr %9, align 1
  %19 = load i32, ptr %8, align 4
  %20 = sub nsw i32 %19, 1
  store i32 %20, ptr %7, align 4
  br label %21

21:                                               ; preds = %56, %3
  %22 = load i32, ptr %7, align 4
  %23 = icmp sge i32 %22, 0
  br i1 %23, label %24, label %59

24:                                               ; preds = %21
  %25 = load ptr, ptr %5, align 8
  %26 = load i32, ptr %7, align 4
  %27 = sext i32 %26 to i64
  %28 = getelementptr inbounds %class.CellTypeState, ptr %25, i64 %27
  %29 = load ptr, ptr %6, align 8
  %30 = load i32, ptr %7, align 4
  %31 = sext i32 %30 to i64
  %32 = getelementptr inbounds %class.CellTypeState, ptr %29, i64 %31
  call void @llvm.memcpy.p0.p0.i64(ptr align 4 %11, ptr align 4 %32, i64 4, i1 false)
  %33 = load i32, ptr %7, align 4
  %34 = getelementptr inbounds %class.CellTypeState, ptr %11, i32 0, i32 0
  %35 = load i32, ptr %34, align 4
  %36 = call i32 @_ZNK13CellTypeState5mergeES_i(ptr noundef nonnull align 4 dereferenceable(4) %28, i32 %35, i32 noundef %33)
  %37 = getelementptr inbounds %class.CellTypeState, ptr %10, i32 0, i32 0
  store i32 %36, ptr %37, align 4
  %38 = load i8, ptr %9, align 1
  %39 = trunc i8 %38 to i1
  br i1 %39, label %49, label %40

40:                                               ; preds = %24
  %41 = load ptr, ptr %6, align 8
  %42 = load i32, ptr %7, align 4
  %43 = sext i32 %42 to i64
  %44 = getelementptr inbounds %class.CellTypeState, ptr %41, i64 %43
  call void @llvm.memcpy.p0.p0.i64(ptr align 4 %12, ptr align 4 %44, i64 4, i1 false)
  %45 = getelementptr inbounds %class.CellTypeState, ptr %12, i32 0, i32 0
  %46 = load i32, ptr %45, align 4
  %47 = call noundef zeroext i1 @_ZNK13CellTypeState5equalES_(ptr noundef nonnull align 4 dereferenceable(4) %10, i32 %46)
  %48 = xor i1 %47, true
  br label %49

49:                                               ; preds = %40, %24
  %50 = phi i1 [ true, %24 ], [ %48, %40 ]
  %51 = zext i1 %50 to i8
  store i8 %51, ptr %9, align 1
  %52 = load ptr, ptr %6, align 8
  %53 = load i32, ptr %7, align 4
  %54 = sext i32 %53 to i64
  %55 = getelementptr inbounds %class.CellTypeState, ptr %52, i64 %54
  call void @llvm.memcpy.p0.p0.i64(ptr align 4 %55, ptr align 4 %10, i64 4, i1 false)
  br label %56

56:                                               ; preds = %49
  %57 = load i32, ptr %7, align 4
  %58 = add nsw i32 %57, -1
  store i32 %58, ptr %7, align 4
  br label %21, !llvm.loop !21

59:                                               ; preds = %21
  %60 = load i8, ptr %9, align 1
  %61 = trunc i8 %60 to i1
  ret i1 %61
}