; Function Attrs: mustprogress nofree norecurse nosync nounwind memory(argmem: readwrite) uwtable
define hidden noundef zeroext i1 @_ZN14GenerateOopMap25merge_local_state_vectorsEP13CellTypeStateS1_(ptr nocapture noundef nonnull readonly align 8 dereferenceable(176) %0, ptr nocapture noundef readonly %1, ptr nocapture noundef %2) local_unnamed_addr #9 align 2 {
  %4 = getelementptr inbounds i8, ptr %0, i64 32
  %5 = load i32, ptr %4, align 8
  %6 = getelementptr inbounds i8, ptr %0, i64 88
  %7 = load i32, ptr %6, align 8
  %8 = add nsw i32 %7, %5
  %9 = icmp sgt i32 %8, 0
  br i1 %9, label %.lr.ph.preheader, label %._crit_edge

.lr.ph.preheader:                                 ; preds = %3
  %10 = zext nneg i32 %8 to i64
  br label %.lr.ph

.lr.ph:                                           ; preds = %.lr.ph.preheader, %_ZNK13CellTypeState5mergeES_i.exit
  %indvars.iv = phi i64 [ %10, %.lr.ph.preheader ], [ %indvars.iv.next, %_ZNK13CellTypeState5mergeES_i.exit ]
  %.01518 = phi i1 [ false, %.lr.ph.preheader ], [ %29, %_ZNK13CellTypeState5mergeES_i.exit ]
  %11 = trunc nuw i64 %indvars.iv to i32
  %.019 = add nsw i32 %11, -1
  %12 = zext nneg i32 %.019 to i64
  %13 = getelementptr inbounds %class.CellTypeState, ptr %1, i64 %12
  %14 = getelementptr inbounds %class.CellTypeState, ptr %2, i64 %12
  %.sroa.01.0.copyload = load i32, ptr %14, align 4
  %15 = load i32, ptr %13, align 4
  %16 = or i32 %15, %.sroa.01.0.copyload
  %17 = and i32 %16, 134217728
  %18 = icmp ne i32 %17, 0
  %19 = icmp eq i32 %15, %.sroa.01.0.copyload
  %or.cond.i = or i1 %19, %18
  br i1 %or.cond.i, label %_ZNK13CellTypeState5mergeES_i.exit, label %20

20:                                               ; preds = %.lr.ph
  %21 = and i32 %16, -268435456
  %22 = icmp eq i32 %21, 1073741824
  br i1 %22, label %23, label %26

23:                                               ; preds = %20
  %24 = and i32 %.019, 16777215
  %25 = or disjoint i32 %24, 1191182336
  br label %_ZNK13CellTypeState5mergeES_i.exit

26:                                               ; preds = %20
  %27 = or i32 %16, 268435455
  br label %_ZNK13CellTypeState5mergeES_i.exit

_ZNK13CellTypeState5mergeES_i.exit:               ; preds = %.lr.ph, %23, %26
  %.sroa.0.0.i = phi i32 [ %16, %.lr.ph ], [ %25, %23 ], [ %27, %26 ]
  %28 = icmp ne i32 %.sroa.0.0.i, %.sroa.01.0.copyload
  %29 = select i1 %.01518, i1 true, i1 %28
  store i32 %.sroa.0.0.i, ptr %14, align 4
  %30 = icmp sgt i32 %11, 1
  %indvars.iv.next = add nsw i64 %indvars.iv, -1
  br i1 %30, label %.lr.ph, label %._crit_edge, !llvm.loop !22

._crit_edge:                                      ; preds = %_ZNK13CellTypeState5mergeES_i.exit, %3
  %.015.lcssa = phi i1 [ false, %3 ], [ %29, %_ZNK13CellTypeState5mergeES_i.exit ]
  ret i1 %.015.lcssa
}